Certificate:
    Data:
        Version: 1 (0x0)
        Serial Number: 1 (0x1)
        Signature Algorithm: sha256WithRSAEncryption
        Issuer: O=Server Root CA
        Validity
            Not Before: Aug 12 22:13:39 2017 GMT
            Not After : Jul 19 22:13:39 2117 GMT
        Subject: CN=localhost
        Subject Public Key Info:
            Public Key Algorithm: rsaEncryption
            RSA Public Key: (2048 bit)
                Modulus (2048 bit):
                    00:ae:8b:fe:e4:ce:45:fd:5e:63:b7:39:b1:8c:d8:
                    52:b7:3d:78:f0:27:c0:be:05:55:ff:b9:13:83:97:
                    27:00:b4:7a:3c:cf:3b:cb:39:81:b6:14:e5:05:63:
                    61:8e:0e:27:58:91:e6:87:a2:60:17:24:dd:bf:65:
                    3c:7d:f1:c6:71:29:53:fb:70:98:cd:6c:25:0a:d4:
                    e6:19:33:3c:b8:e4:61:f9:2f:6e:4d:01:3a:9d:cd:
                    e6:86:7f:93:db:13:4e:70:5c:83:ca:2c:b9:74:63:
                    cd:46:01:bc:b7:0c:b7:c2:10:d3:97:e8:66:ec:5c:
                    96:db:e5:44:d6:01:a8:19:06:0d:ec:f3:12:50:3d:
                    96:f4:fb:21:55:2f:4e:4c:21:3b:8d:57:0d:d6:7b:
                    3d:3f:3d:9d:dc:3b:a2:a6:c2:86:fd:17:de:1a:d6:
                    72:de:60:46:a2:d2:9a:a9:28:b7:a5:ae:1b:a6:b5:
                    d4:84:c5:dc:38:a4:7e:17:cb:51:63:de:ae:44:cb:
                    93:d8:31:50:f9:d2:dc:46:51:11:8e:3e:0f:a2:a1:
                    02:a3:5d:76:56:f6:34:07:a5:89:1a:2e:95:32:fa:
                    84:51:b9:fe:e7:e4:20:08:73:9f:f5:89:71:a8:48:
                    a0:9f:1c:b1:9e:21:87:b0:be:84:b8:65:32:06:20:
                    61:0d
                Exponent: 65537 (0x10001)
    Signature Algorithm: sha256WithRSAEncryption
        67:d1:81:b5:c3:c1:b4:85:e5:c4:43:ee:21:bc:a2:17:db:13:
        ee:b6:b5:28:24:da:19:b9:35:68:ac:a7:55:73:41:94:db:fe:
        b0:99:49:35:f7:24:a4:f0:10:57:cf:05:a1:eb:be:d3:90:61:
        04:44:b9:5b:76:b4:9f:b4:89:ba:88:c1:b9:8b:31:ac:4d:74:
        d8:a3:1e:94:8f:b8:e6:d4:79:c6:14:e6:56:71:ed:1e:84:32:
        44:d8:08:40:e5:f3:59:74:a0:e9:15:8a:27:75:67:c0:d5:79:
        ed:53:c4:92:d6:af:a8:b8:97:43:ae:97:80:a1:ed:81:88:d5:
        51:9a:fe:f9:f7:5b:f2:b4:38:26:a0:33:1f:4b:e3:23:fa:50:
        a5:78:91:ff:be:d5:2d:aa:e9:2a:62:9a:ea:87:07:fa:43:cd:
        24:4b:1e:96:59:2e:f4:73:d5:d7:4c:a9:1c:7a:fc:11:96:68:
        32:68:f1:ee:14:51:75:67:0e:ff:74:bd:40:59:62:21:bc:ce:
        30:0a:33:a7:2d:86:f8:91:cc:20:54:ce:17:69:b1:22:15:e4:
        7d:eb:43:36:87:c9:2f:b8:bd:b7:02:b1:41:c6:ca:c0:ad:9e:
        31:f5:ec:38:bc:3d:ad:9e:e7:3d:d7:ce:26:e0:49:2c:35:59:
        bf:ea:e9:32
-----BEGIN CERTIFICATE-----
MIICozCCAYsCAQEwDQYJKoZIhvcNAQELBQAwGTEXMBUGA1UEChMOU2VydmVyIFJv
b3QgQ0EwIBcNMTcwODEyMjIxMzM5WhgPMjExNzA3MTkyMjEzMzlaMBQxEjAQBgNV
BAMTCWxvY2FsaG9zdDCCASIwDQYJKoZIhvcNAQEBBQADggEPADCCAQoCggEBAK6L
/uTORf1eY7c5sYzYUrc9ePAnwL4FVf+5E4OXJwC0ejzPO8s5gbYU5QVjYY4OJ1iR
5oeiYBck3b9lPH3xxnEpU/twmM1sJQrU5hkzPLjkYfkvbk0BOp3N5oZ/k9sTTnBc
g8osuXRjzUYBvLcMt8IQ05foZuxcltvlRNYBqBkGDezzElA9lvT7IVUvTkwhO41X
DdZ7PT89ndw7oqbChv0X3hrWct5gRqLSmqkot6WuG6a11ITF3DikfhfLUWPerkTL
k9gxUPnS3EZREY4+D6KhAqNddlb2NAeliRoulTL6hFG5/ufkIAhzn/WJcahIoJ8c
sZ4hh7C+hLhlMgYgYQ0CAwEAATANBgkqhkiG9w0BAQsFAAOCAQEAZ9GBtcPBtIXl
xEPuIbyiF9sT7ra1KCTaGbk1aKynVXNBlNv+sJlJNfckpPAQV88Foeu+05BhBES5
W3a0n7SJuojBuYsxrE102KMelI+45tR5xhTmVnHtHoQyRNgIQOXzWXSg6RWKJ3Vn
wNV57VPEktavqLiXQ66XgKHtgYjVUZr++fdb8rQ4JqAzH0vjI/pQpXiR/77VLarp
KmKa6ocH+kPNJEsellku9HPV10ypHHr8EZZoMmjx7hRRdWcO/3S9QFliIbzOMAoz
py2G+JHMIFTOF2mxIhXkfetDNofJL7i9twKxQcbKwK2eMfXsOLw9rZ7nPdfOJuBJ
LDVZv+rpMg==
-----END CERTIFICATE-----
