Certificate:
    Data:
        Version: 1 (0x0)
        Serial Number: 1 (0x1)
        Signature Algorithm: sha256WithRSAEncryption
        Issuer: O=Client Untrusted Root CA
        Validity
            Not Before: Aug 12 22:13:41 2017 GMT
            Not After : Jul 19 22:13:41 2117 GMT
        Subject: CN=Client Untrusted Device
        Subject Public Key Info:
            Public Key Algorithm: rsaEncryption
            RSA Public Key: (2048 bit)
                Modulus (2048 bit):
                    00:bf:f2:ef:e1:3c:3d:57:21:33:e1:93:a6:88:68:
                    d8:1b:31:fd:aa:a5:42:9d:6d:a1:1a:86:e7:89:28:
                    c1:10:c9:cf:dd:8a:8e:55:52:0d:75:de:61:3a:42:
                    1e:86:31:74:a4:ea:f9:4b:64:43:51:b3:fc:a3:40:
                    1b:62:f2:9d:0c:0e:7f:b7:7a:13:a5:e8:62:5b:3c:
                    a6:45:d9:74:c9:51:5b:94:89:41:3e:be:01:bc:4b:
                    41:51:77:d2:70:64:97:41:83:31:cf:fe:5e:c3:71:
                    6f:8f:43:1c:51:4e:d0:48:9b:b0:44:2e:37:e4:ae:
                    87:28:12:9c:a4:eb:8f:c1:f6:0a:ca:00:28:36:0d:
                    44:28:4f:69:66:c9:42:42:f6:d7:4f:de:79:6f:10:
                    2b:e3:e5:0d:16:93:de:f5:d5:64:4a:a7:4f:30:97:
                    7c:de:6b:08:82:2e:b8:b2:fb:ab:37:fd:3c:66:02:
                    8e:ba:7d:18:b7:f7:70:1b:19:b9:b9:b2:a8:c4:77:
                    47:ae:86:00:fc:0d:91:b4:78:3a:a2:92:5e:b5:33:
                    6b:41:11:9b:2d:4a:17:1d:7c:80:f8:34:e5:b6:0d:
                    3f:7d:a1:a4:66:36:58:7f:bb:84:a5:ae:f4:ca:33:
                    f8:07:56:1c:07:a0:21:67:68:e9:61:ea:66:fc:e3:
                    6c:3b
                Exponent: 65537 (0x10001)
    Signature Algorithm: sha256WithRSAEncryption
        2d:ae:aa:5b:30:dd:35:72:1f:b7:a8:70:f8:f2:06:ae:c7:df:
        8c:19:74:53:85:5e:f1:9b:6f:18:0d:78:fe:19:14:d7:10:c0:
        48:43:98:7d:d3:80:17:15:ad:cb:3c:0c:29:f3:21:2b:43:80:
        2f:5f:32:3a:0b:12:ab:f7:8f:ba:4f:68:bb:8c:15:b3:d4:08:
        9b:ad:8b:e7:d0:c8:ef:00:b7:79:8f:c5:1f:76:d5:89:75:f4:
        f5:08:7c:06:1b:20:09:df:dc:4d:00:29:48:95:57:48:78:0a:
        ec:e5:0d:a3:85:d8:ef:f6:e8:5c:e1:6d:a5:f8:44:f1:26:10:
        63:1b:88:0a:d6:07:81:e5:e1:5e:f4:09:dd:6c:97:b9:e6:5f:
        bb:8d:0d:0c:18:3b:91:d2:01:c1:aa:3c:22:42:55:e4:34:fa:
        82:ae:53:ad:eb:d0:e2:fa:46:b8:8e:36:50:cf:a0:4f:9a:e2:
        12:60:79:bd:0a:78:c6:f0:b0:ca:d4:c4:73:d2:e9:b7:e2:a4:
        7a:28:1e:7d:71:fc:25:1e:4e:25:f4:98:65:d7:31:f6:2a:84:
        e5:65:c7:5d:39:8d:db:4a:64:8c:38:17:a8:75:27:b5:f5:47:
        e8:1f:e5:b8:09:0d:3f:22:96:cc:af:08:28:29:ee:3a:7a:e4:
        a9:62:ac:1e
-----BEGIN CERTIFICATE-----
MIICuzCCAaMCAQEwDQYJKoZIhvcNAQELBQAwIzEhMB8GA1UEChMYQ2xpZW50IFVu
dHJ1c3RlZCBSb290IENBMCAXDTE3MDgxMjIyMTM0MVoYDzIxMTcwNzE5MjIxMzQx
WjAiMSAwHgYDVQQDExdDbGllbnQgVW50cnVzdGVkIERldmljZTCCASIwDQYJKoZI
hvcNAQEBBQADggEPADCCAQoCggEBAL/y7+E8PVchM+GTpoho2Bsx/aqlQp1toRqG
54kowRDJz92KjlVSDXXeYTpCHoYxdKTq+UtkQ1Gz/KNAG2LynQwOf7d6E6XoYls8
pkXZdMlRW5SJQT6+AbxLQVF30nBkl0GDMc/+XsNxb49DHFFO0EibsEQuN+SuhygS
nKTrj8H2CsoAKDYNRChPaWbJQkL210/eeW8QK+PlDRaT3vXVZEqnTzCXfN5rCIIu
uLL7qzf9PGYCjrp9GLf3cBsZubmyqMR3R66GAPwNkbR4OqKSXrUza0ERmy1KFx18
gPg05bYNP32hpGY2WH+7hKWu9Moz+AdWHAegIWdo6WHqZvzjbDsCAwEAATANBgkq
hkiG9w0BAQsFAAOCAQEALa6qWzDdNXIft6hw+PIGrsffjBl0U4Ve8ZtvGA14/hkU
1xDASEOYfdOAFxWtyzwMKfMhK0OAL18yOgsSq/ePuk9ou4wVs9QIm62L59DI7wC3
eY/FH3bViXX09Qh8BhsgCd/cTQApSJVXSHgK7OUNo4XY7/boXOFtpfhE8SYQYxuI
CtYHgeXhXvQJ3WyXueZfu40NDBg7kdIBwao8IkJV5DT6gq5TrevQ4vpGuI42UM+g
T5riEmB5vQp4xvCwytTEc9Lpt+KkeigefXH8JR5OJfSYZdcx9iqE5WXHXTmN20pk
jDgXqHUntfVH6B/luAkNPyKWzK8IKCnuOnrkqWKsHg==
-----END CERTIFICATE-----
