Certificate:
    Data:
        Version: 1 (0x0)
        Serial Number: 1 (0x1)
        Signature Algorithm: sha256WithRSAEncryption
        Issuer: O=Client Trusted Root CA
        Validity
            Not Before: Aug 12 22:13:40 2017 GMT
            Not After : Jul 19 22:13:40 2117 GMT
        Subject: CN=Client Trusted Device
        Subject Public Key Info:
            Public Key Algorithm: rsaEncryption
            RSA Public Key: (2048 bit)
                Modulus (2048 bit):
                    00:df:82:3f:83:05:62:48:82:23:43:19:c6:58:eb:
                    19:4b:73:8a:fa:c6:f6:a8:ba:09:be:49:00:e6:f7:
                    44:07:ef:4c:66:63:9c:40:e8:64:21:09:2e:b3:82:
                    ad:3b:55:d3:85:51:ed:60:64:5a:8f:7f:b3:0a:eb:
                    f5:b3:6d:06:c1:69:27:59:a5:e5:67:64:30:ff:ce:
                    71:b6:b1:77:71:8d:ca:46:83:4a:4a:2b:b8:59:02:
                    65:40:79:13:32:b9:a6:65:f8:4b:2f:ef:2b:eb:6a:
                    ae:b7:2d:36:2c:8c:90:dc:6d:76:11:3c:a3:02:20:
                    1c:88:78:c5:e1:64:a9:b7:bd:d6:64:c2:2e:c5:8d:
                    77:bb:8f:25:46:c1:3d:1d:c3:58:5e:2e:b7:60:65:
                    f7:14:82:4e:a6:6f:a7:01:b6:34:08:48:df:f4:db:
                    68:0b:df:6e:fa:5d:bd:f3:18:f5:d1:40:f2:fc:c6:
                    00:44:55:0b:59:5c:2b:60:70:25:f2:98:19:dd:3b:
                    23:d3:34:7a:47:d3:02:f9:1d:ac:40:63:6c:77:87:
                    c0:c9:74:cf:26:ee:93:06:4a:ce:87:9a:d5:56:d9:
                    85:49:d8:ee:d0:1f:58:c9:93:57:9a:f6:92:1e:c1:
                    74:87:2c:a5:74:74:ef:3f:e3:b2:02:be:d5:bf:5a:
                    0c:8d
                Exponent: 65537 (0x10001)
    Signature Algorithm: sha256WithRSAEncryption
        2c:f9:f0:c2:79:d6:7b:b8:b9:6f:b1:e0:1b:92:c1:3b:ee:59:
        4b:4a:c4:a5:f8:3c:2c:df:0b:5d:c0:89:18:0a:80:1d:81:30:
        3d:3f:b1:a2:e5:33:9c:d6:10:55:17:30:16:87:4f:df:7b:cc:
        6a:f8:1d:cf:33:f5:3c:22:ef:7c:4a:bf:21:1a:e3:3d:a5:01:
        bb:cc:7d:ce:da:57:3a:b4:36:fd:60:aa:09:ad:f4:80:4b:ca:
        59:4f:7e:3f:45:44:c1:f4:72:3a:46:e9:d2:5c:ac:c2:ae:1a:
        bb:4d:69:62:58:a0:09:77:e8:b3:f0:e0:5b:da:a2:d4:13:20:
        96:3b:db:b7:54:0a:39:b4:43:9f:78:c3:00:c2:05:95:0d:57:
        53:8c:dd:a5:96:22:7c:24:11:65:c7:e6:0e:4a:34:da:b5:99:
        4f:c3:36:8e:61:a5:83:00:04:51:97:48:a8:c1:fb:e3:ba:8e:
        c7:d1:86:74:15:83:88:78:7d:54:ea:58:89:df:b1:70:09:41:
        88:ca:9b:0f:4e:a2:68:3b:3f:d0:bf:64:04:c5:2f:de:4e:d7:
        79:68:11:a6:c4:eb:80:d6:0b:10:bc:87:4c:02:18:a2:54:92:
        bd:65:b2:c4:40:6d:b2:1b:f3:d8:16:68:3e:d1:39:3e:c6:25:
        49:28:a9:4e
-----BEGIN CERTIFICATE-----
MIICtzCCAZ8CAQEwDQYJKoZIhvcNAQELBQAwITEfMB0GA1UEChMWQ2xpZW50IFRy
dXN0ZWQgUm9vdCBDQTAgFw0xNzA4MTIyMjEzNDBaGA8yMTE3MDcxOTIyMTM0MFow
IDEeMBwGA1UEAxMVQ2xpZW50IFRydXN0ZWQgRGV2aWNlMIIBIjANBgkqhkiG9w0B
AQEFAAOCAQ8AMIIBCgKCAQEA34I/gwViSIIjQxnGWOsZS3OK+sb2qLoJvkkA5vdE
B+9MZmOcQOhkIQkus4KtO1XThVHtYGRaj3+zCuv1s20GwWknWaXlZ2Qw/85xtrF3
cY3KRoNKSiu4WQJlQHkTMrmmZfhLL+8r62quty02LIyQ3G12ETyjAiAciHjF4WSp
t73WZMIuxY13u48lRsE9HcNYXi63YGX3FIJOpm+nAbY0CEjf9NtoC99u+l298xj1
0UDy/MYARFULWVwrYHAl8pgZ3Tsj0zR6R9MC+R2sQGNsd4fAyXTPJu6TBkrOh5rV
VtmFSdju0B9YyZNXmvaSHsF0hyyldHTvP+OyAr7Vv1oMjQIDAQABMA0GCSqGSIb3
DQEBCwUAA4IBAQAs+fDCedZ7uLlvseAbksE77llLSsSl+Dws3wtdwIkYCoAdgTA9
P7Gi5TOc1hBVFzAWh0/fe8xq+B3PM/U8Iu98Sr8hGuM9pQG7zH3O2lc6tDb9YKoJ
rfSAS8pZT34/RUTB9HI6RunSXKzCrhq7TWliWKAJd+iz8OBb2qLUEyCWO9u3VAo5
tEOfeMMAwgWVDVdTjN2lliJ8JBFlx+YOSjTatZlPwzaOYaWDAARRl0iowfvjuo7H
0YZ0FYOIeH1U6liJ37FwCUGIypsPTqJoOz/Qv2QExS/eTtd5aBGmxOuA1gsQvIdM
AhiiVJK9ZbLEQG2yG/PYFmg+0Tk+xiVJKKlO
-----END CERTIFICATE-----
